target datalayout = "e-m:e-p270:32:32-p271:32:32-p272:64:64-i64:64-i128:128-f80:128-n8:16:32:64-S128"
target triple = "x86_64-pc-linux-gnu"

%"struct.absl::crc_internal::CrcMemcpy::ArchSpecificEngines" = type { ptr, ptr }
%"class.absl::crc32c_t" = type { i32 }

@_ZZN4absl12crc_internal9CrcMemcpy10CrcAndCopyEPvPKvmNS_8crc32c_tEbE7engines = linkonce_odr dso_local global %"struct.absl::crc_internal::CrcMemcpy::ArchSpecificEngines" zeroinitializer, comdat, align 8
@_ZGVZN4absl12crc_internal9CrcMemcpy10CrcAndCopyEPvPKvmNS_8crc32c_tEbE7engines = linkonce_odr dso_local global i64 0, comdat, align 8

; Function Attrs: mustprogress uwtable
define linkonce_odr dso_local i32 @_ZN4absl12crc_internal9CrcMemcpy10CrcAndCopyEPvPKvmNS_8crc32c_tEb(ptr noalias noundef %0, ptr noalias noundef %1, i64 noundef %2, i32 %3, i1 noundef zeroext %4) #0 comdat align 2 personality ptr @__gxx_personality_v0 {
  %6 = alloca %"class.absl::crc32c_t", align 4
  %7 = alloca %"class.absl::crc32c_t", align 4
  %8 = alloca ptr, align 8
  %9 = alloca ptr, align 8
  %10 = alloca i64, align 8
  %11 = alloca i8, align 1
  %12 = alloca ptr, align 8
  %13 = alloca i32, align 4
  %14 = alloca ptr, align 8
  %15 = alloca %"class.absl::crc32c_t", align 4
  %16 = getelementptr inbounds nuw %"class.absl::crc32c_t", ptr %7, i32 0, i32 0
  store i32 %3, ptr %16, align 4
  store ptr %0, ptr %8, align 8, !tbaa !29
  store ptr %1, ptr %9, align 8, !tbaa !29
  store i64 %2, ptr %10, align 8, !tbaa !4
  %17 = zext i1 %4 to i8
  store i8 %17, ptr %11, align 1, !tbaa !30
  %18 = load atomic i8, ptr @_ZGVZN4absl12crc_internal9CrcMemcpy10CrcAndCopyEPvPKvmNS_8crc32c_tEbE7engines acquire, align 8
  %19 = icmp eq i8 %18, 0
  br i1 %19, label %20, label %29, !prof !17

20:                                               ; preds = %5
  %21 = call i32 @__cxa_guard_acquire(ptr @_ZGVZN4absl12crc_internal9CrcMemcpy10CrcAndCopyEPvPKvmNS_8crc32c_tEbE7engines) #5
  %22 = icmp ne i32 %21, 0
  br i1 %22, label %23, label %29

23:                                               ; preds = %20
  %24 = invoke { ptr, ptr } @_ZN4absl12crc_internal9CrcMemcpy22GetArchSpecificEnginesEv()
          to label %25 unwind label %51

25:                                               ; preds = %23
  %26 = extractvalue { ptr, ptr } %24, 0
  store ptr %26, ptr @_ZZN4absl12crc_internal9CrcMemcpy10CrcAndCopyEPvPKvmNS_8crc32c_tEbE7engines, align 8
  %27 = extractvalue { ptr, ptr } %24, 1
  store ptr %27, ptr getelementptr inbounds nuw ({ ptr, ptr }, ptr @_ZZN4absl12crc_internal9CrcMemcpy10CrcAndCopyEPvPKvmNS_8crc32c_tEbE7engines, i32 0, i32 1), align 8
  %28 = call ptr @llvm.invariant.start.p0(i64 16, ptr @_ZZN4absl12crc_internal9CrcMemcpy10CrcAndCopyEPvPKvmNS_8crc32c_tEbE7engines)
  call void @__cxa_guard_release(ptr @_ZGVZN4absl12crc_internal9CrcMemcpy10CrcAndCopyEPvPKvmNS_8crc32c_tEbE7engines) #5
  br label %29

29:                                               ; preds = %25, %20, %5
  call void @llvm.lifetime.start.p0(i64 8, ptr %14) #5
  %30 = load i8, ptr %11, align 1, !tbaa !30, !range !32, !noundef !33
  %31 = trunc i8 %30 to i1
  br i1 %31, label %32, label %34

32:                                               ; preds = %29
  %33 = load ptr, ptr getelementptr inbounds nuw (%"struct.absl::crc_internal::CrcMemcpy::ArchSpecificEngines", ptr @_ZZN4absl12crc_internal9CrcMemcpy10CrcAndCopyEPvPKvmNS_8crc32c_tEbE7engines, i32 0, i32 1), align 8, !tbaa !36
  br label %36

34:                                               ; preds = %29
  %35 = load ptr, ptr @_ZZN4absl12crc_internal9CrcMemcpy10CrcAndCopyEPvPKvmNS_8crc32c_tEbE7engines, align 8, !tbaa !39
  br label %36

36:                                               ; preds = %34, %32
  %37 = phi ptr [ %33, %32 ], [ %35, %34 ]
  store ptr %37, ptr %14, align 8, !tbaa !40
  %38 = load ptr, ptr %14, align 8, !tbaa !40
  %39 = load ptr, ptr %8, align 8, !tbaa !29
  %40 = load ptr, ptr %9, align 8, !tbaa !29
  %41 = load i64, ptr %10, align 8, !tbaa !4
  call void @llvm.memcpy.p0.p0.i64(ptr align 4 %15, ptr align 4 %7, i64 4, i1 false), !tbaa.struct !28
  %42 = getelementptr inbounds nuw %"class.absl::crc32c_t", ptr %15, i32 0, i32 0
  %43 = load i32, ptr %42, align 4
  %44 = load ptr, ptr %38, align 8, !tbaa !10
  %45 = getelementptr inbounds ptr, ptr %44, i64 2
  %46 = load ptr, ptr %45, align 8
  %47 = call i32 %46(ptr noundef nonnull align 8 dereferenceable(8) %38, ptr noundef %39, ptr noundef %40, i64 noundef %41, i32 %43)
  %48 = getelementptr inbounds nuw %"class.absl::crc32c_t", ptr %6, i32 0, i32 0
  store i32 %47, ptr %48, align 4
  call void @llvm.lifetime.end.p0(i64 8, ptr %14) #5
  %49 = getelementptr inbounds nuw %"class.absl::crc32c_t", ptr %6, i32 0, i32 0
  %50 = load i32, ptr %49, align 4
  ret i32 %50

51:                                               ; preds = %23
  %52 = landingpad { ptr, i32 }
          cleanup
  %53 = extractvalue { ptr, i32 } %52, 0
  store ptr %53, ptr %12, align 8
  %54 = extractvalue { ptr, i32 } %52, 1
  store i32 %54, ptr %13, align 4
  call void @__cxa_guard_abort(ptr @_ZGVZN4absl12crc_internal9CrcMemcpy10CrcAndCopyEPvPKvmNS_8crc32c_tEbE7engines) #5
  br label %55

55:                                               ; preds = %51
  %56 = load ptr, ptr %12, align 8
  %57 = load i32, ptr %13, align 4
  %58 = insertvalue { ptr, i32 } poison, ptr %56, 0
  %59 = insertvalue { ptr, i32 } %58, i32 %57, 1
  resume { ptr, i32 } %59
}

; Function Attrs: inlinehint mustprogress uwtable
define linkonce_odr dso_local i32 @_ZN4absl12crc_internal13Crc32CAndCopyEPvPKvmNS_8crc32c_tEb(ptr noalias noundef %0, ptr noalias noundef %1, i64 noundef %2, i32 %3, i1 noundef zeroext %4) #3 comdat {
  %6 = alloca %"class.absl::crc32c_t", align 4
  %7 = alloca %"class.absl::crc32c_t", align 4
  %8 = alloca ptr, align 8
  %9 = alloca ptr, align 8
  %10 = alloca i64, align 8
  %11 = alloca i8, align 1
  %12 = alloca %"class.absl::crc32c_t", align 4
  %13 = getelementptr inbounds nuw %"class.absl::crc32c_t", ptr %7, i32 0, i32 0
  store i32 %3, ptr %13, align 4
  store ptr %0, ptr %8, align 8, !tbaa !29
  store ptr %1, ptr %9, align 8, !tbaa !29
  store i64 %2, ptr %10, align 8, !tbaa !4
  %14 = zext i1 %4 to i8
  store i8 %14, ptr %11, align 1, !tbaa !30
  %15 = load ptr, ptr %8, align 8, !tbaa !29
  %16 = load ptr, ptr %9, align 8, !tbaa !29
  %17 = load i64, ptr %10, align 8, !tbaa !4
  call void @llvm.memcpy.p0.p0.i64(ptr align 4 %12, ptr align 4 %7, i64 4, i1 false), !tbaa.struct !28
  %18 = load i8, ptr %11, align 1, !tbaa !30, !range !32, !noundef !33
  %19 = trunc i8 %18 to i1
  %20 = getelementptr inbounds nuw %"class.absl::crc32c_t", ptr %12, i32 0, i32 0
  %21 = load i32, ptr %20, align 4
  %22 = call i32 @_ZN4absl12crc_internal9CrcMemcpy10CrcAndCopyEPvPKvmNS_8crc32c_tEb(ptr noundef %15, ptr noundef %16, i64 noundef %17, i32 %21, i1 noundef zeroext %19)
  %23 = getelementptr inbounds nuw %"class.absl::crc32c_t", ptr %6, i32 0, i32 0
  store i32 %22, ptr %23, align 4
  %24 = getelementptr inbounds nuw %"class.absl::crc32c_t", ptr %6, i32 0, i32 0
  %25 = load i32, ptr %24, align 4
  ret i32 %25
}

; Function Attrs: mustprogress uwtable
define dso_local i32 @_ZN4absl12MemcpyCrc32cEPvPKvmNS_8crc32c_tE(ptr noundef %0, ptr noundef %1, i64 noundef %2, i32 %3) #0 {
  %5 = alloca %"class.absl::crc32c_t", align 4
  %6 = alloca %"class.absl::crc32c_t", align 4
  %7 = alloca ptr, align 8
  %8 = alloca ptr, align 8
  %9 = alloca i64, align 8
  %10 = alloca %"class.absl::crc32c_t", align 4
  %11 = getelementptr inbounds nuw %"class.absl::crc32c_t", ptr %6, i32 0, i32 0
  store i32 %3, ptr %11, align 4
  store ptr %0, ptr %7, align 8, !tbaa !29
  store ptr %1, ptr %8, align 8, !tbaa !29
  store i64 %2, ptr %9, align 8, !tbaa !4
  %12 = load ptr, ptr %7, align 8, !tbaa !29
  %13 = load ptr, ptr %8, align 8, !tbaa !29
  %14 = load i64, ptr %9, align 8, !tbaa !4
  call void @llvm.memcpy.p0.p0.i64(ptr align 4 %10, ptr align 4 %6, i64 4, i1 false), !tbaa.struct !28
  %15 = getelementptr inbounds nuw %"class.absl::crc32c_t", ptr %10, i32 0, i32 0
  %16 = load i32, ptr %15, align 4
  %17 = call i32 @_ZN4absl12crc_internal13Crc32CAndCopyEPvPKvmNS_8crc32c_tEb(ptr noundef %12, ptr noundef %13, i64 noundef %14, i32 %16, i1 noundef zeroext false)
  %18 = getelementptr inbounds nuw %"class.absl::crc32c_t", ptr %5, i32 0, i32 0
  store i32 %17, ptr %18, align 4
  %19 = getelementptr inbounds nuw %"class.absl::crc32c_t", ptr %5, i32 0, i32 0
  %20 = load i32, ptr %19, align 4
  ret i32 %20
}