; Function Attrs: mustprogress uwtable
define dso_local i32 @_ZN4absl12MemcpyCrc32cEPvPKvmNS_8crc32c_tE(ptr noundef %0, ptr noundef %1, i64 noundef %2, i32 %3) local_unnamed_addr #0 personality ptr @__gxx_personality_v0 {
  %5 = load atomic i8, ptr @_ZGVZN4absl12crc_internal9CrcMemcpy10CrcAndCopyEPvPKvmNS_8crc32c_tEbE7engines acquire, align 8, !noalias !14
  %6 = icmp eq i8 %5, 0
  br i1 %6, label %7, label %_ZN4absl12crc_internal13Crc32CAndCopyEPvPKvmNS_8crc32c_tEb.exit, !prof !8

7:                                                ; preds = %4
  %8 = tail call i32 @__cxa_guard_acquire(ptr nonnull @_ZGVZN4absl12crc_internal9CrcMemcpy10CrcAndCopyEPvPKvmNS_8crc32c_tEbE7engines) #4, !noalias !14
  %.not.i.i = icmp eq i32 %8, 0
  br i1 %.not.i.i, label %_ZN4absl12crc_internal13Crc32CAndCopyEPvPKvmNS_8crc32c_tEb.exit, label %9

9:                                                ; preds = %7
  %10 = invoke { ptr, ptr } @_ZN4absl12crc_internal9CrcMemcpy22GetArchSpecificEnginesEv()
          to label %11 unwind label %15, !noalias !14

11:                                               ; preds = %9
  %12 = extractvalue { ptr, ptr } %10, 0
  store ptr %12, ptr @_ZZN4absl12crc_internal9CrcMemcpy10CrcAndCopyEPvPKvmNS_8crc32c_tEbE7engines, align 8, !noalias !14
  %13 = extractvalue { ptr, ptr } %10, 1
  store ptr %13, ptr getelementptr inbounds nuw (i8, ptr @_ZZN4absl12crc_internal9CrcMemcpy10CrcAndCopyEPvPKvmNS_8crc32c_tEbE7engines, i64 8), align 8, !noalias !14
  %14 = tail call ptr @llvm.invariant.start.p0(i64 16, ptr nonnull @_ZZN4absl12crc_internal9CrcMemcpy10CrcAndCopyEPvPKvmNS_8crc32c_tEbE7engines), !noalias !14
  tail call void @__cxa_guard_release(ptr nonnull @_ZGVZN4absl12crc_internal9CrcMemcpy10CrcAndCopyEPvPKvmNS_8crc32c_tEbE7engines) #4, !noalias !14
  br label %_ZN4absl12crc_internal13Crc32CAndCopyEPvPKvmNS_8crc32c_tEb.exit

15:                                               ; preds = %9
  %16 = landingpad { ptr, i32 }
          cleanup
  tail call void @__cxa_guard_abort(ptr nonnull @_ZGVZN4absl12crc_internal9CrcMemcpy10CrcAndCopyEPvPKvmNS_8crc32c_tEbE7engines) #4, !noalias !14
  resume { ptr, i32 } %16

_ZN4absl12crc_internal13Crc32CAndCopyEPvPKvmNS_8crc32c_tEb.exit: ; preds = %4, %7, %11
  %17 = load ptr, ptr @_ZZN4absl12crc_internal9CrcMemcpy10CrcAndCopyEPvPKvmNS_8crc32c_tEbE7engines, align 8, !noalias !14
  %18 = load ptr, ptr %17, align 8, !tbaa !12, !noalias !14
  %19 = getelementptr inbounds nuw i8, ptr %18, i64 16
  %20 = load ptr, ptr %19, align 8, !noalias !14
  %21 = tail call i32 %20(ptr noundef nonnull align 8 dereferenceable(8) %17, ptr noundef %0, ptr noundef %1, i64 noundef %2, i32 %3)
  ret i32 %21
}